; Function Attrs: nounwind uwtable
define dso_local ptr @reparent_relative_path(ptr noundef %0, ptr noundef %1, ptr noundef %2) local_unnamed_addr #0 {
  %.val = load i8, ptr %2, align 1, !tbaa !17
  %.not = icmp eq i8 %.val, 47
  br i1 %.not, label %4, label %6

4:                                                ; preds = %3
  %5 = tail call ptr @xstrdup(ptr noundef nonnull %2) #7
  br label %10

6:                                                ; preds = %3
  %7 = tail call ptr (ptr, ...) @xstrfmt(ptr noundef nonnull @.str.2, ptr noundef %0, ptr noundef nonnull %2) #7
  %8 = tail call ptr @remove_leading_path(ptr noundef %7, ptr noundef %1) #7
  %9 = tail call ptr @xstrdup(ptr noundef %8) #7
  tail call void @free(ptr noundef %7) #7
  br label %10

10:                                               ; preds = %6, %4
  %.0 = phi ptr [ %5, %4 ], [ %9, %6 ]
  ret ptr %.0
}